target datalayout = "e-m:e-p270:32:32-p271:32:32-p272:64:64-i64:64-i128:128-f80:128-n8:16:32:64-S128"
target triple = "x86_64-pc-linux-gnu"

%union.pthread_mutex_t = type { %struct.__pthread_mutex_s }
%struct.__pthread_mutex_s = type { i32, i32, i32, i32, i32, i16, i16, %struct.__pthread_internal_list }
%struct.__pthread_internal_list = type { ptr, ptr }
%struct.pmix_tma = type { ptr, ptr, ptr, ptr, ptr, ptr, ptr, ptr }
%struct.pmix_object_t = type { %union.pthread_mutex_t, ptr, i32, %struct.pmix_tma }
%struct.pmix_list_item_t = type { %struct.pmix_object_t, ptr, ptr, i32 }
%struct.pmix_kval_t = type { %struct.pmix_list_item_t, ptr, ptr }

; Function Attrs: inlinehint nounwind uwtable
define internal void @pmix_tma_free(ptr noundef %0, ptr noundef %1) #3 {
  %3 = alloca ptr, align 8
  %4 = alloca ptr, align 8
  store ptr %0, ptr %3, align 8, !tbaa !64
  store ptr %1, ptr %4, align 8, !tbaa !45
  %5 = load ptr, ptr %3, align 8, !tbaa !64
  %6 = icmp ne ptr null, %5
  br i1 %6, label %7, label %13

7:                                                ; preds = %2
  %8 = load ptr, ptr %3, align 8, !tbaa !64
  %9 = getelementptr inbounds nuw %struct.pmix_tma, ptr %8, i32 0, i32 5
  %10 = load ptr, ptr %9, align 8, !tbaa !84
  %11 = load ptr, ptr %3, align 8, !tbaa !64
  %12 = load ptr, ptr %4, align 8, !tbaa !45
  call void %10(ptr noundef %11, ptr noundef %12)
  br label %15

13:                                               ; preds = %2
  %14 = load ptr, ptr %4, align 8, !tbaa !45
  call void @free(ptr noundef %14) #10
  br label %15

15:                                               ; preds = %13, %7
  ret void
}

; Function Attrs: inlinehint nounwind uwtable
define internal ptr @pmix_obj_get_tma(ptr noundef %0) #3 {
  %2 = alloca ptr, align 8
  %3 = alloca ptr, align 8
  store ptr %0, ptr %3, align 8, !tbaa !33
  %4 = load ptr, ptr %3, align 8, !tbaa !33
  %5 = getelementptr inbounds nuw %struct.pmix_object_t, ptr %4, i32 0, i32 3
  %6 = getelementptr inbounds nuw %struct.pmix_tma, ptr %5, i32 0, i32 0
  %7 = load ptr, ptr %6, align 8, !tbaa !66
  %8 = icmp ne ptr %7, null
  br i1 %8, label %9, label %12

9:                                                ; preds = %1
  %10 = load ptr, ptr %3, align 8, !tbaa !33
  %11 = getelementptr inbounds nuw %struct.pmix_object_t, ptr %10, i32 0, i32 3
  store ptr %11, ptr %2, align 8
  br label %13

12:                                               ; preds = %1
  store ptr null, ptr %2, align 8
  br label %13

13:                                               ; preds = %12, %9
  %14 = load ptr, ptr %2, align 8
  ret ptr %14
}

; Function Attrs: nounwind uwtable
define internal void @kvdes(ptr noundef %0) #0 {
  %2 = alloca ptr, align 8
  %3 = alloca ptr, align 8
  store ptr %0, ptr %2, align 8, !tbaa !45
  call void @llvm.lifetime.start.p0(i64 8, ptr %3) #10
  %4 = load ptr, ptr %2, align 8, !tbaa !45
  %5 = getelementptr inbounds nuw %struct.pmix_kval_t, ptr %4, i32 0, i32 0
  %6 = getelementptr inbounds nuw %struct.pmix_list_item_t, ptr %5, i32 0, i32 0
  %7 = call ptr @pmix_obj_get_tma(ptr noundef %6)
  store ptr %7, ptr %3, align 8, !tbaa !64
  %8 = load ptr, ptr %2, align 8, !tbaa !45
  %9 = getelementptr inbounds nuw %struct.pmix_kval_t, ptr %8, i32 0, i32 1
  %10 = load ptr, ptr %9, align 8, !tbaa !60
  %11 = icmp ne ptr null, %10
  br i1 %11, label %12, label %17

12:                                               ; preds = %1
  %13 = load ptr, ptr %3, align 8, !tbaa !64
  %14 = load ptr, ptr %2, align 8, !tbaa !45
  %15 = getelementptr inbounds nuw %struct.pmix_kval_t, ptr %14, i32 0, i32 1
  %16 = load ptr, ptr %15, align 8, !tbaa !60
  call void @pmix_tma_free(ptr noundef %13, ptr noundef %16)
  br label %17

17:                                               ; preds = %12, %1
  %18 = load ptr, ptr %2, align 8, !tbaa !45
  %19 = getelementptr inbounds nuw %struct.pmix_kval_t, ptr %18, i32 0, i32 2
  %20 = load ptr, ptr %19, align 8, !tbaa !63
  %21 = icmp ne ptr null, %20
  br i1 %21, label %22, label %33

22:                                               ; preds = %17
  %23 = load ptr, ptr %2, align 8, !tbaa !45
  %24 = getelementptr inbounds nuw %struct.pmix_kval_t, ptr %23, i32 0, i32 2
  %25 = load ptr, ptr %24, align 8, !tbaa !63
  %26 = load ptr, ptr %3, align 8, !tbaa !64
  call void @pmix_bfrops_base_tma_value_destruct(ptr noundef %25, ptr noundef %26)
  %27 = load ptr, ptr %3, align 8, !tbaa !64
  %28 = load ptr, ptr %2, align 8, !tbaa !45
  %29 = getelementptr inbounds nuw %struct.pmix_kval_t, ptr %28, i32 0, i32 2
  %30 = load ptr, ptr %29, align 8, !tbaa !63
  call void @pmix_tma_free(ptr noundef %27, ptr noundef %30)
  %31 = load ptr, ptr %2, align 8, !tbaa !45
  %32 = getelementptr inbounds nuw %struct.pmix_kval_t, ptr %31, i32 0, i32 2
  store ptr null, ptr %32, align 8, !tbaa !63
  br label %33

33:                                               ; preds = %22, %17
  call void @llvm.lifetime.end.p0(i64 8, ptr %3) #10
  ret void
}