; Function Attrs: nounwind uwtable
define internal void @kvdes(ptr noundef %0) #0 {
  %2 = getelementptr inbounds nuw i8, ptr %0, i64 56
  %3 = load ptr, ptr %2, align 8, !tbaa !55
  %.not.i = icmp eq ptr %3, null
  %..i = select i1 %.not.i, ptr null, ptr %2
  %4 = getelementptr inbounds nuw i8, ptr %0, i64 144
  %5 = load ptr, ptr %4, align 8, !tbaa !56
  %.not = icmp eq ptr %5, null
  br i1 %.not, label %pmix_tma_free.exit, label %6

6:                                                ; preds = %1
  br i1 %.not.i, label %10, label %7

7:                                                ; preds = %6
  %8 = getelementptr inbounds nuw i8, ptr %0, i64 96
  %9 = load ptr, ptr %8, align 8, !tbaa !59
  tail call void %9(ptr noundef nonnull %2, ptr noundef nonnull %5) #11
  br label %pmix_tma_free.exit

10:                                               ; preds = %6
  tail call void @free(ptr noundef nonnull %5) #11
  br label %pmix_tma_free.exit

pmix_tma_free.exit:                               ; preds = %10, %7, %1
  %11 = getelementptr inbounds nuw i8, ptr %0, i64 152
  %12 = load ptr, ptr %11, align 8, !tbaa !60
  %.not11 = icmp eq ptr %12, null
  br i1 %.not11, label %19, label %13

13:                                               ; preds = %pmix_tma_free.exit
  tail call fastcc void @pmix_bfrops_base_tma_value_destruct(ptr noundef %12, ptr noundef %..i)
  %14 = load ptr, ptr %11, align 8, !tbaa !60
  br i1 %.not.i, label %18, label %15

15:                                               ; preds = %13
  %16 = getelementptr inbounds nuw i8, ptr %0, i64 96
  %17 = load ptr, ptr %16, align 8, !tbaa !59
  tail call void %17(ptr noundef nonnull %2, ptr noundef %14) #11
  br label %pmix_tma_free.exit14

18:                                               ; preds = %13
  tail call void @free(ptr noundef %14) #11
  br label %pmix_tma_free.exit14

pmix_tma_free.exit14:                             ; preds = %15, %18
  store ptr null, ptr %11, align 8, !tbaa !60
  br label %19

19:                                               ; preds = %pmix_tma_free.exit14, %pmix_tma_free.exit
  ret void
}